target datalayout = "e-m:e-p270:32:32-p271:32:32-p272:64:64-i64:64-i128:128-f80:128-n8:16:32:64-S128"
target triple = "x86_64-unknown-linux-gnu"

%struct.ResourceData = type { ptr, ptr, ptr, ptr, i32, i32, ptr, i32, i32, i8, i8, i8, i8 }

@_ZL8gEmpty16 = internal constant i16 0, align 2

; Function Attrs: mustprogress uwtable
define void @res_unload_75(ptr noundef %pResData) #0 {
entry:
  %pResData.addr = alloca ptr, align 8
  store ptr %pResData, ptr %pResData.addr, align 8
  %0 = load ptr, ptr %pResData.addr, align 8
  %data = getelementptr inbounds %struct.ResourceData, ptr %0, i32 0, i32 0
  %1 = load ptr, ptr %data, align 8
  %cmp = icmp ne ptr %1, null
  br i1 %cmp, label %if.then, label %if.end

if.then:                                          ; preds = %entry
  %2 = load ptr, ptr %pResData.addr, align 8
  %data1 = getelementptr inbounds %struct.ResourceData, ptr %2, i32 0, i32 0
  %3 = load ptr, ptr %data1, align 8
  call void @udata_close_75(ptr noundef %3)
  %4 = load ptr, ptr %pResData.addr, align 8
  %data2 = getelementptr inbounds %struct.ResourceData, ptr %4, i32 0, i32 0
  store ptr null, ptr %data2, align 8
  br label %if.end

if.end:                                           ; preds = %if.then, %entry
  ret void
}

; Function Attrs: mustprogress uwtable
define internal void @_ZL8res_initP12ResourceDataPhPKviP10UErrorCode(ptr noundef %pResData, ptr noundef %formatVersion, ptr noundef %inBytes, i32 noundef %length, ptr noundef %errorCode) #0 {
entry:
  %pResData.addr = alloca ptr, align 8
  %formatVersion.addr = alloca ptr, align 8
  %inBytes.addr = alloca ptr, align 8
  %length.addr = alloca i32, align 4
  %errorCode.addr = alloca ptr, align 8
  %rootType = alloca i32, align 4
  %indexes = alloca ptr, align 8
  %indexLength = alloca i32, align 4
  %att = alloca i32, align 4
  store ptr %pResData, ptr %pResData.addr, align 8
  store ptr %formatVersion, ptr %formatVersion.addr, align 8
  store ptr %inBytes, ptr %inBytes.addr, align 8
  store i32 %length, ptr %length.addr, align 4
  store ptr %errorCode, ptr %errorCode.addr, align 8
  %0 = load ptr, ptr %inBytes.addr, align 8
  %1 = load ptr, ptr %pResData.addr, align 8
  %pRoot = getelementptr inbounds %struct.ResourceData, ptr %1, i32 0, i32 1
  store ptr %0, ptr %pRoot, align 8
  %2 = load ptr, ptr %pResData.addr, align 8
  %pRoot1 = getelementptr inbounds %struct.ResourceData, ptr %2, i32 0, i32 1
  %3 = load ptr, ptr %pRoot1, align 8
  %4 = load i32, ptr %3, align 4
  %5 = load ptr, ptr %pResData.addr, align 8
  %rootRes = getelementptr inbounds %struct.ResourceData, ptr %5, i32 0, i32 4
  store i32 %4, ptr %rootRes, align 8
  %6 = load ptr, ptr %pResData.addr, align 8
  %p16BitUnits = getelementptr inbounds %struct.ResourceData, ptr %6, i32 0, i32 2
  store ptr @_ZL8gEmpty16, ptr %p16BitUnits, align 8
  %7 = load i32, ptr %length.addr, align 4
  %cmp = icmp sge i32 %7, 0
  br i1 %cmp, label %land.lhs.true, label %if.end

land.lhs.true:                                    ; preds = %entry
  %8 = load i32, ptr %length.addr, align 4
  %div = sdiv i32 %8, 4
  %9 = load ptr, ptr %formatVersion.addr, align 8
  %arrayidx = getelementptr inbounds i8, ptr %9, i64 0
  %10 = load i8, ptr %arrayidx, align 1
  %conv = zext i8 %10 to i32
  %cmp2 = icmp eq i32 %conv, 1
  br i1 %cmp2, label %land.rhs, label %land.end

land.rhs:                                         ; preds = %land.lhs.true
  %11 = load ptr, ptr %formatVersion.addr, align 8
  %arrayidx3 = getelementptr inbounds i8, ptr %11, i64 1
  %12 = load i8, ptr %arrayidx3, align 1
  %conv4 = zext i8 %12 to i32
  %cmp5 = icmp eq i32 %conv4, 0
  br label %land.end

land.end:                                         ; preds = %land.rhs, %land.lhs.true
  %13 = phi i1 [ false, %land.lhs.true ], [ %cmp5, %land.rhs ]
  %cond = select i1 %13, i32 1, i32 6
  %cmp6 = icmp slt i32 %div, %cond
  br i1 %cmp6, label %if.then, label %if.end

if.then:                                          ; preds = %land.end
  %14 = load ptr, ptr %errorCode.addr, align 8
  store i32 3, ptr %14, align 4
  %15 = load ptr, ptr %pResData.addr, align 8
  call void @res_unload_75(ptr noundef %15)
  br label %if.end92

if.end:                                           ; preds = %land.end, %entry
  %16 = load ptr, ptr %pResData.addr, align 8
  %rootRes7 = getelementptr inbounds %struct.ResourceData, ptr %16, i32 0, i32 4
  %17 = load i32, ptr %rootRes7, align 8
  %shr = lshr i32 %17, 28
  store i32 %shr, ptr %rootType, align 4
  %18 = load i32, ptr %rootType, align 4
  %cmp8 = icmp eq i32 %18, 2
  br i1 %cmp8, label %if.end13, label %lor.lhs.false

lor.lhs.false:                                    ; preds = %if.end
  %19 = load i32, ptr %rootType, align 4
  %cmp9 = icmp eq i32 %19, 5
  br i1 %cmp9, label %if.end13, label %lor.lhs.false10

lor.lhs.false10:                                  ; preds = %lor.lhs.false
  %20 = load i32, ptr %rootType, align 4
  %cmp11 = icmp eq i32 %20, 4
  br i1 %cmp11, label %if.end13, label %if.then12

if.then12:                                        ; preds = %lor.lhs.false10
  %21 = load ptr, ptr %errorCode.addr, align 8
  store i32 3, ptr %21, align 4
  %22 = load ptr, ptr %pResData.addr, align 8
  call void @res_unload_75(ptr noundef %22)
  br label %if.end92

if.end13:                                         ; preds = %lor.lhs.false10, %lor.lhs.false, %if.end
  %23 = load ptr, ptr %formatVersion.addr, align 8
  %arrayidx14 = getelementptr inbounds i8, ptr %23, i64 0
  %24 = load i8, ptr %arrayidx14, align 1
  %conv15 = zext i8 %24 to i32
  %cmp16 = icmp eq i32 %conv15, 1
  br i1 %cmp16, label %land.lhs.true17, label %if.else

land.lhs.true17:                                  ; preds = %if.end13
  %25 = load ptr, ptr %formatVersion.addr, align 8
  %arrayidx18 = getelementptr inbounds i8, ptr %25, i64 1
  %26 = load i8, ptr %arrayidx18, align 1
  %conv19 = zext i8 %26 to i32
  %cmp20 = icmp eq i32 %conv19, 0
  br i1 %cmp20, label %if.then21, label %if.else

if.then21:                                        ; preds = %land.lhs.true17
  %27 = load ptr, ptr %pResData.addr, align 8
  %localKeyLimit = getelementptr inbounds %struct.ResourceData, ptr %27, i32 0, i32 5
  store i32 65536, ptr %localKeyLimit, align 4
  br label %if.end86

if.else:                                          ; preds = %land.lhs.true17, %if.end13
  %28 = load ptr, ptr %pResData.addr, align 8
  %pRoot22 = getelementptr inbounds %struct.ResourceData, ptr %28, i32 0, i32 1
  %29 = load ptr, ptr %pRoot22, align 8
  %add.ptr = getelementptr inbounds i32, ptr %29, i64 1
  store ptr %add.ptr, ptr %indexes, align 8
  %30 = load ptr, ptr %indexes, align 8
  %arrayidx23 = getelementptr inbounds i32, ptr %30, i64 0
  %31 = load i32, ptr %arrayidx23, align 4
  %and = and i32 %31, 255
  store i32 %and, ptr %indexLength, align 4
  %32 = load i32, ptr %indexLength, align 4
  %cmp24 = icmp sle i32 %32, 4
  br i1 %cmp24, label %if.then25, label %if.end26

if.then25:                                        ; preds = %if.else
  %33 = load ptr, ptr %errorCode.addr, align 8
  store i32 3, ptr %33, align 4
  %34 = load ptr, ptr %pResData.addr, align 8
  call void @res_unload_75(ptr noundef %34)
  br label %if.end92

if.end26:                                         ; preds = %if.else
  %35 = load i32, ptr %length.addr, align 4
  %cmp27 = icmp sge i32 %35, 0
  br i1 %cmp27, label %land.lhs.true28, label %if.end35

land.lhs.true28:                                  ; preds = %if.end26
  %36 = load i32, ptr %length.addr, align 4
  %37 = load i32, ptr %indexLength, align 4
  %add = add nsw i32 1, %37
  %shl = shl i32 %add, 2
  %cmp29 = icmp slt i32 %36, %shl
  br i1 %cmp29, label %if.then34, label %lor.lhs.false30

lor.lhs.false30:                                  ; preds = %land.lhs.true28
  %38 = load i32, ptr %length.addr, align 4
  %39 = load ptr, ptr %indexes, align 8
  %arrayidx31 = getelementptr inbounds i32, ptr %39, i64 3
  %40 = load i32, ptr %arrayidx31, align 4
  %shl32 = shl i32 %40, 2
  %cmp33 = icmp slt i32 %38, %shl32
  br i1 %cmp33, label %if.then34, label %if.end35

if.then34:                                        ; preds = %lor.lhs.false30, %land.lhs.true28
  %41 = load ptr, ptr %errorCode.addr, align 8
  store i32 3, ptr %41, align 4
  %42 = load ptr, ptr %pResData.addr, align 8
  call void @res_unload_75(ptr noundef %42)
  br label %if.end92

if.end35:                                         ; preds = %lor.lhs.false30, %if.end26
  %43 = load ptr, ptr %indexes, align 8
  %arrayidx36 = getelementptr inbounds i32, ptr %43, i64 1
  %44 = load i32, ptr %arrayidx36, align 4
  %45 = load i32, ptr %indexLength, align 4
  %add37 = add nsw i32 1, %45
  %cmp38 = icmp sgt i32 %44, %add37
  br i1 %cmp38, label %if.then39, label %if.end43

if.then39:                                        ; preds = %if.end35
  %46 = load ptr, ptr %indexes, align 8
  %arrayidx40 = getelementptr inbounds i32, ptr %46, i64 1
  %47 = load i32, ptr %arrayidx40, align 4
  %shl41 = shl i32 %47, 2
  %48 = load ptr, ptr %pResData.addr, align 8
  %localKeyLimit42 = getelementptr inbounds %struct.ResourceData, ptr %48, i32 0, i32 5
  store i32 %shl41, ptr %localKeyLimit42, align 4
  br label %if.end43

if.end43:                                         ; preds = %if.then39, %if.end35
  %49 = load ptr, ptr %formatVersion.addr, align 8
  %arrayidx44 = getelementptr inbounds i8, ptr %49, i64 0
  %50 = load i8, ptr %arrayidx44, align 1
  %conv45 = zext i8 %50 to i32
  %cmp46 = icmp sge i32 %conv45, 3
  br i1 %cmp46, label %if.then47, label %if.end50

if.then47:                                        ; preds = %if.end43
  %51 = load ptr, ptr %indexes, align 8
  %arrayidx48 = getelementptr inbounds i32, ptr %51, i64 0
  %52 = load i32, ptr %arrayidx48, align 4
  %shr49 = lshr i32 %52, 8
  %53 = load ptr, ptr %pResData.addr, align 8
  %poolStringIndexLimit = getelementptr inbounds %struct.ResourceData, ptr %53, i32 0, i32 7
  store i32 %shr49, ptr %poolStringIndexLimit, align 8
  br label %if.end50

if.end50:                                         ; preds = %if.then47, %if.end43
  %54 = load i32, ptr %indexLength, align 4
  %cmp51 = icmp sgt i32 %54, 5
  br i1 %cmp51, label %if.then52, label %if.end66

if.then52:                                        ; preds = %if.end50
  %55 = load ptr, ptr %indexes, align 8
  %arrayidx53 = getelementptr inbounds i32, ptr %55, i64 5
  %56 = load i32, ptr %arrayidx53, align 4
  store i32 %56, ptr %att, align 4
  %57 = load i32, ptr %att, align 4
  %and54 = and i32 %57, 1
  %conv55 = trunc i32 %and54 to i8
  %58 = load ptr, ptr %pResData.addr, align 8
  %noFallback = getelementptr inbounds %struct.ResourceData, ptr %58, i32 0, i32 9
  store i8 %conv55, ptr %noFallback, align 8
  %59 = load i32, ptr %att, align 4
  %and56 = and i32 %59, 2
  %cmp57 = icmp ne i32 %and56, 0
  %conv58 = zext i1 %cmp57 to i8
  %60 = load ptr, ptr %pResData.addr, align 8
  %isPoolBundle = getelementptr inbounds %struct.ResourceData, ptr %60, i32 0, i32 10
  store i8 %conv58, ptr %isPoolBundle, align 1
  %61 = load i32, ptr %att, align 4
  %and59 = and i32 %61, 4
  %cmp60 = icmp ne i32 %and59, 0
  %conv61 = zext i1 %cmp60 to i8
  %62 = load ptr, ptr %pResData.addr, align 8
  %usesPoolBundle = getelementptr inbounds %struct.ResourceData, ptr %62, i32 0, i32 11
  store i8 %conv61, ptr %usesPoolBundle, align 2
  %63 = load i32, ptr %att, align 4
  %and62 = and i32 %63, 61440
  %shl63 = shl i32 %and62, 12
  %64 = load ptr, ptr %pResData.addr, align 8
  %poolStringIndexLimit64 = getelementptr inbounds %struct.ResourceData, ptr %64, i32 0, i32 7
  %65 = load i32, ptr %poolStringIndexLimit64, align 8
  %or = or i32 %65, %shl63
  store i32 %or, ptr %poolStringIndexLimit64, align 8
  %66 = load i32, ptr %att, align 4
  %shr65 = lshr i32 %66, 16
  %67 = load ptr, ptr %pResData.addr, align 8
  %poolStringIndex16Limit = getelementptr inbounds %struct.ResourceData, ptr %67, i32 0, i32 8
  store i32 %shr65, ptr %poolStringIndex16Limit, align 4
  br label %if.end66

if.end66:                                         ; preds = %if.then52, %if.end50
  %68 = load ptr, ptr %pResData.addr, align 8
  %isPoolBundle67 = getelementptr inbounds %struct.ResourceData, ptr %68, i32 0, i32 10
  %69 = load i8, ptr %isPoolBundle67, align 1
  %tobool = icmp ne i8 %69, 0
  br i1 %tobool, label %land.lhs.true71, label %lor.lhs.false68

lor.lhs.false68:                                  ; preds = %if.end66
  %70 = load ptr, ptr %pResData.addr, align 8
  %usesPoolBundle69 = getelementptr inbounds %struct.ResourceData, ptr %70, i32 0, i32 11
  %71 = load i8, ptr %usesPoolBundle69, align 2
  %tobool70 = icmp ne i8 %71, 0
  br i1 %tobool70, label %land.lhs.true71, label %if.end74

land.lhs.true71:                                  ; preds = %lor.lhs.false68, %if.end66
  %72 = load i32, ptr %indexLength, align 4
  %cmp72 = icmp sle i32 %72, 7
  br i1 %cmp72, label %if.then73, label %if.end74

if.then73:                                        ; preds = %land.lhs.true71
  %73 = load ptr, ptr %errorCode.addr, align 8
  store i32 3, ptr %73, align 4
  %74 = load ptr, ptr %pResData.addr, align 8
  call void @res_unload_75(ptr noundef %74)
  br label %if.end92

if.end74:                                         ; preds = %land.lhs.true71, %lor.lhs.false68
  %75 = load i32, ptr %indexLength, align 4
  %cmp75 = icmp sgt i32 %75, 6
  br i1 %cmp75, label %land.lhs.true76, label %if.end85

land.lhs.true76:                                  ; preds = %if.end74
  %76 = load ptr, ptr %indexes, align 8
  %arrayidx77 = getelementptr inbounds i32, ptr %76, i64 6
  %77 = load i32, ptr %arrayidx77, align 4
  %78 = load ptr, ptr %indexes, align 8
  %arrayidx78 = getelementptr inbounds i32, ptr %78, i64 1
  %79 = load i32, ptr %arrayidx78, align 4
  %cmp79 = icmp sgt i32 %77, %79
  br i1 %cmp79, label %if.then80, label %if.end85

if.then80:                                        ; preds = %land.lhs.true76
  %80 = load ptr, ptr %pResData.addr, align 8
  %pRoot81 = getelementptr inbounds %struct.ResourceData, ptr %80, i32 0, i32 1
  %81 = load ptr, ptr %pRoot81, align 8
  %82 = load ptr, ptr %indexes, align 8
  %arrayidx82 = getelementptr inbounds i32, ptr %82, i64 1
  %83 = load i32, ptr %arrayidx82, align 4
  %idx.ext = sext i32 %83 to i64
  %add.ptr83 = getelementptr inbounds i32, ptr %81, i64 %idx.ext
  %84 = load ptr, ptr %pResData.addr, align 8
  %p16BitUnits84 = getelementptr inbounds %struct.ResourceData, ptr %84, i32 0, i32 2
  store ptr %add.ptr83, ptr %p16BitUnits84, align 8
  br label %if.end85

if.end85:                                         ; preds = %if.then80, %land.lhs.true76, %if.end74
  br label %if.end86

if.end86:                                         ; preds = %if.end85, %if.then21
  %85 = load ptr, ptr %formatVersion.addr, align 8
  %arrayidx87 = getelementptr inbounds i8, ptr %85, i64 0
  %86 = load i8, ptr %arrayidx87, align 1
  %conv88 = zext i8 %86 to i32
  %cmp89 = icmp eq i32 %conv88, 1
  br i1 %cmp89, label %if.then91, label %lor.lhs.false90

lor.lhs.false90:                                  ; preds = %if.end86
  br i1 true, label %if.then91, label %if.end92

if.then91:                                        ; preds = %lor.lhs.false90, %if.end86
  %87 = load ptr, ptr %pResData.addr, align 8
  %useNativeStrcmp = getelementptr inbounds %struct.ResourceData, ptr %87, i32 0, i32 12
  store i8 1, ptr %useNativeStrcmp, align 1
  br label %if.end92

if.end92:                                         ; preds = %if.then91, %lor.lhs.false90, %if.then73, %if.then34, %if.then25, %if.then12, %if.then
  ret void
}