; Function Attrs: mustprogress uwtable
define internal fastcc void @_ZL8res_initP12ResourceDataPhPKviP10UErrorCode(ptr nocapture noundef %pResData, ptr nocapture noundef readonly %formatVersion, ptr noundef %inBytes, i32 noundef %length, ptr nocapture noundef writeonly %errorCode) unnamed_addr #0 {
entry:
  %pRoot = getelementptr inbounds i8, ptr %pResData, i64 8
  store ptr %inBytes, ptr %pRoot, align 8
  %0 = load i32, ptr %inBytes, align 4
  %rootRes = getelementptr inbounds i8, ptr %pResData, i64 32
  store i32 %0, ptr %rootRes, align 8
  %p16BitUnits = getelementptr inbounds i8, ptr %pResData, i64 16
  store ptr @_ZL8gEmpty16, ptr %p16BitUnits, align 8
  %cmp = icmp sgt i32 %length, -1
  br i1 %cmp, label %land.lhs.true, label %if.end

land.lhs.true:                                    ; preds = %entry
  %div60 = lshr i32 %length, 2
  %1 = load i8, ptr %formatVersion, align 1
  %cmp2 = icmp eq i8 %1, 1
  br i1 %cmp2, label %land.rhs, label %land.end

land.rhs:                                         ; preds = %land.lhs.true
  %arrayidx3 = getelementptr inbounds i8, ptr %formatVersion, i64 1
  %2 = load i8, ptr %arrayidx3, align 1
  %cmp5 = icmp eq i8 %2, 0
  %3 = select i1 %cmp5, i32 1, i32 6
  br label %land.end

land.end:                                         ; preds = %land.rhs, %land.lhs.true
  %cond = phi i32 [ 6, %land.lhs.true ], [ %3, %land.rhs ]
  %cmp6 = icmp ult i32 %div60, %cond
  br i1 %cmp6, label %if.then, label %if.end

if.then:                                          ; preds = %land.end
  store i32 3, ptr %errorCode, align 4
  %4 = load ptr, ptr %pResData, align 8
  %cmp.not.i = icmp eq ptr %4, null
  br i1 %cmp.not.i, label %if.end92, label %if.then.i

if.then.i:                                        ; preds = %if.then
  tail call void @udata_close_75(ptr noundef nonnull %4)
  store ptr null, ptr %pResData, align 8
  br label %if.end92

if.end:                                           ; preds = %land.end, %entry
  %shr.mask = and i32 %0, -268435456
  %cmp8 = icmp eq i32 %shr.mask, 536870912
  %5 = and i32 %0, -536870912
  %6 = icmp eq i32 %5, 1073741824
  %or.cond1 = or i1 %cmp8, %6
  br i1 %or.cond1, label %if.end13, label %if.then12

if.then12:                                        ; preds = %if.end
  store i32 3, ptr %errorCode, align 4
  %7 = load ptr, ptr %pResData, align 8
  %cmp.not.i61 = icmp eq ptr %7, null
  br i1 %cmp.not.i61, label %if.end92, label %if.then.i62

if.then.i62:                                      ; preds = %if.then12
  tail call void @udata_close_75(ptr noundef nonnull %7)
  store ptr null, ptr %pResData, align 8
  br label %if.end92

if.end13:                                         ; preds = %if.end
  %8 = load i8, ptr %formatVersion, align 1
  %cmp16 = icmp eq i8 %8, 1
  br i1 %cmp16, label %land.lhs.true17, label %if.else

land.lhs.true17:                                  ; preds = %if.end13
  %arrayidx18 = getelementptr inbounds i8, ptr %formatVersion, i64 1
  %9 = load i8, ptr %arrayidx18, align 1
  %cmp20 = icmp eq i8 %9, 0
  br i1 %cmp20, label %if.then21, label %if.else

if.then21:                                        ; preds = %land.lhs.true17
  %localKeyLimit = getelementptr inbounds i8, ptr %pResData, i64 36
  store i32 65536, ptr %localKeyLimit, align 4
  br label %if.end86

if.else:                                          ; preds = %land.lhs.true17, %if.end13
  %add.ptr = getelementptr inbounds i8, ptr %inBytes, i64 4
  %10 = load i32, ptr %add.ptr, align 4
  %and = and i32 %10, 255
  %cmp24 = icmp ult i32 %and, 5
  br i1 %cmp24, label %if.then25, label %if.end26

if.then25:                                        ; preds = %if.else
  store i32 3, ptr %errorCode, align 4
  %11 = load ptr, ptr %pResData, align 8
  %cmp.not.i64 = icmp eq ptr %11, null
  br i1 %cmp.not.i64, label %if.end92, label %if.then.i65

if.then.i65:                                      ; preds = %if.then25
  tail call void @udata_close_75(ptr noundef nonnull %11)
  store ptr null, ptr %pResData, align 8
  br label %if.end92

if.end26:                                         ; preds = %if.else
  br i1 %cmp, label %land.lhs.true28, label %if.end35

land.lhs.true28:                                  ; preds = %if.end26
  %add = shl nuw nsw i32 %and, 2
  %shl = add nuw nsw i32 %add, 4
  %cmp29 = icmp ugt i32 %shl, %length
  br i1 %cmp29, label %if.then34, label %lor.lhs.false30

lor.lhs.false30:                                  ; preds = %land.lhs.true28
  %arrayidx31 = getelementptr inbounds i8, ptr %inBytes, i64 16
  %12 = load i32, ptr %arrayidx31, align 4
  %shl32 = shl i32 %12, 2
  %cmp33 = icmp sgt i32 %shl32, %length
  br i1 %cmp33, label %if.then34, label %if.end35

if.then34:                                        ; preds = %lor.lhs.false30, %land.lhs.true28
  store i32 3, ptr %errorCode, align 4
  %13 = load ptr, ptr %pResData, align 8
  %cmp.not.i67 = icmp eq ptr %13, null
  br i1 %cmp.not.i67, label %if.end92, label %if.then.i68

if.then.i68:                                      ; preds = %if.then34
  tail call void @udata_close_75(ptr noundef nonnull %13)
  store ptr null, ptr %pResData, align 8
  br label %if.end92

if.end35:                                         ; preds = %lor.lhs.false30, %if.end26
  %arrayidx36 = getelementptr inbounds i8, ptr %inBytes, i64 8
  %14 = load i32, ptr %arrayidx36, align 4
  %add37 = add nuw nsw i32 %and, 1
  %cmp38 = icmp sgt i32 %14, %add37
  br i1 %cmp38, label %if.then39, label %if.end43

if.then39:                                        ; preds = %if.end35
  %shl41 = shl i32 %14, 2
  %localKeyLimit42 = getelementptr inbounds i8, ptr %pResData, i64 36
  store i32 %shl41, ptr %localKeyLimit42, align 4
  %.pre = load i8, ptr %formatVersion, align 1
  br label %if.end43

if.end43:                                         ; preds = %if.then39, %if.end35
  %15 = phi i8 [ %.pre, %if.then39 ], [ %8, %if.end35 ]
  %cmp46 = icmp ugt i8 %15, 2
  br i1 %cmp46, label %if.then47, label %if.end50

if.then47:                                        ; preds = %if.end43
  %16 = load i32, ptr %add.ptr, align 4
  %shr49 = lshr i32 %16, 8
  %poolStringIndexLimit = getelementptr inbounds i8, ptr %pResData, i64 48
  store i32 %shr49, ptr %poolStringIndexLimit, align 8
  br label %if.end50

if.end50:                                         ; preds = %if.then47, %if.end43
  %cmp51.not = icmp eq i32 %and, 5
  br i1 %cmp51.not, label %if.end66.thread, label %if.end66

if.end66:                                         ; preds = %if.end50
  %arrayidx53 = getelementptr inbounds i8, ptr %inBytes, i64 24
  %17 = load i32, ptr %arrayidx53, align 4
  %18 = trunc i32 %17 to i8
  %conv55 = and i8 %18, 1
  %noFallback = getelementptr inbounds i8, ptr %pResData, i64 56
  store i8 %conv55, ptr %noFallback, align 8
  %19 = lshr i8 %18, 1
  %conv58 = and i8 %19, 1
  %isPoolBundle = getelementptr inbounds i8, ptr %pResData, i64 57
  store i8 %conv58, ptr %isPoolBundle, align 1
  %20 = lshr i8 %18, 2
  %conv61 = and i8 %20, 1
  %usesPoolBundle = getelementptr inbounds i8, ptr %pResData, i64 58
  store i8 %conv61, ptr %usesPoolBundle, align 2
  %and62 = shl i32 %17, 12
  %shl63 = and i32 %and62, 251658240
  %poolStringIndexLimit64 = getelementptr inbounds i8, ptr %pResData, i64 48
  %21 = load i32, ptr %poolStringIndexLimit64, align 8
  %or = or i32 %21, %shl63
  store i32 %or, ptr %poolStringIndexLimit64, align 8
  %shr65 = lshr i32 %17, 16
  %poolStringIndex16Limit = getelementptr inbounds i8, ptr %pResData, i64 52
  store i32 %shr65, ptr %poolStringIndex16Limit, align 4
  %tobool.not = icmp eq i8 %conv58, 0
  br i1 %tobool.not, label %lor.lhs.false68, label %land.lhs.true71

if.end66.thread:                                  ; preds = %if.end50
  %isPoolBundle6773 = getelementptr inbounds i8, ptr %pResData, i64 57
  %22 = load i8, ptr %isPoolBundle6773, align 1
  %tobool.not74 = icmp eq i8 %22, 0
  br i1 %tobool.not74, label %lor.lhs.false68.thread, label %if.then73

lor.lhs.false68:                                  ; preds = %if.end66
  %tobool70 = icmp ne i8 %conv61, 0
  %cmp72 = icmp ult i32 %and, 8
  %or.cond2 = and i1 %cmp72, %tobool70
  br i1 %or.cond2, label %if.then73, label %if.end74

lor.lhs.false68.thread:                           ; preds = %if.end66.thread
  %usesPoolBundle6977 = getelementptr inbounds i8, ptr %pResData, i64 58
  %23 = load i8, ptr %usesPoolBundle6977, align 2
  %tobool7078.not = icmp eq i8 %23, 0
  br i1 %tobool7078.not, label %if.end86, label %if.then73

land.lhs.true71:                                  ; preds = %if.end66
  %cmp72.old = icmp ult i32 %and, 8
  br i1 %cmp72.old, label %if.then73, label %land.lhs.true76

if.then73:                                        ; preds = %if.end66.thread, %lor.lhs.false68.thread, %lor.lhs.false68, %land.lhs.true71
  store i32 3, ptr %errorCode, align 4
  %24 = load ptr, ptr %pResData, align 8
  %cmp.not.i70 = icmp eq ptr %24, null
  br i1 %cmp.not.i70, label %if.end92, label %if.then.i71

if.then.i71:                                      ; preds = %if.then73
  tail call void @udata_close_75(ptr noundef nonnull %24)
  store ptr null, ptr %pResData, align 8
  br label %if.end92

if.end74:                                         ; preds = %lor.lhs.false68
  %cmp75 = icmp ugt i32 %and, 6
  br i1 %cmp75, label %land.lhs.true76, label %if.end86

land.lhs.true76:                                  ; preds = %land.lhs.true71, %if.end74
  %arrayidx77 = getelementptr inbounds i8, ptr %inBytes, i64 28
  %25 = load i32, ptr %arrayidx77, align 4
  %26 = load i32, ptr %arrayidx36, align 4
  %cmp79 = icmp sgt i32 %25, %26
  br i1 %cmp79, label %if.then80, label %if.end86

if.then80:                                        ; preds = %land.lhs.true76
  %idx.ext = sext i32 %26 to i64
  %add.ptr83 = getelementptr inbounds i32, ptr %inBytes, i64 %idx.ext
  store ptr %add.ptr83, ptr %p16BitUnits, align 8
  br label %if.end86

if.end86:                                         ; preds = %lor.lhs.false68.thread, %if.end74, %land.lhs.true76, %if.then80, %if.then21
  %useNativeStrcmp = getelementptr inbounds i8, ptr %pResData, i64 59
  store i8 1, ptr %useNativeStrcmp, align 1
  br label %if.end92

if.end92:                                         ; preds = %if.then.i71, %if.then73, %if.then.i68, %if.then34, %if.then.i65, %if.then25, %if.then.i62, %if.then12, %if.then.i, %if.then, %if.end86
  ret void
}